; Function Attrs: mustprogress uwtable
define hidden noundef ptr @_ZN10array_util12mk_array_extEP4sortj(ptr nocapture noundef nonnull readonly align 8 dereferenceable(16) %this, ptr noundef %domain, i32 noundef %i) local_unnamed_addr #3 align 2 personality ptr @__gxx_personality_v0 {
entry:
  %domains = alloca [2 x ptr], align 16
  %p = alloca %class.parameter, align 8
  store ptr %domain, ptr %domains, align 16
  %arrayinit.element = getelementptr inbounds i8, ptr %domains, i64 8
  store ptr %domain, ptr %arrayinit.element, align 8
  store i32 %i, ptr %p, align 8
  %_M_index.i.i.i.i.i.i.i.i.i = getelementptr inbounds i8, ptr %p, i64 8
  store i8 0, ptr %_M_index.i.i.i.i.i.i.i.i.i, align 8
  %m_manager = getelementptr inbounds i8, ptr %this, i64 8
  %0 = load ptr, ptr %m_manager, align 8
  %1 = load i32, ptr %this, align 8
  %call = invoke noundef ptr @_ZN11ast_manager12mk_func_declEiijPK9parameterjPKP4sortS4_(ptr noundef nonnull align 8 dereferenceable(976) %0, i32 noundef %1, i32 noundef 3, i32 noundef 1, ptr noundef nonnull %p, i32 noundef 2, ptr noundef nonnull %domains, ptr noundef null)
          to label %invoke.cont unwind label %lpad

invoke.cont:                                      ; preds = %entry
  call void @_ZN9parameterD1Ev(ptr noundef nonnull align 8 dereferenceable(16) %p) #19
  ret ptr %call

lpad:                                             ; preds = %entry
  %2 = landingpad { ptr, i32 }
          cleanup
  call void @_ZN9parameterD1Ev(ptr noundef nonnull align 8 dereferenceable(16) %p) #19
  resume { ptr, i32 } %2
}